; Function Attrs: mustprogress uwtable
define hidden noundef i32 @_ZN2cv3dnn14dnn4_v2024122328getParam_DNN_BACKEND_DEFAULTEv() local_unnamed_addr #3 personality ptr @__gxx_personality_v0 {
  %1 = load atomic i8, ptr @_ZGVZN2cv3dnn14dnn4_v2024122328getParam_DNN_BACKEND_DEFAULTEvE25PARAM_DNN_BACKEND_DEFAULT acquire, align 8
  %2 = icmp eq i8 %1, 0
  br i1 %2, label %3, label %9, !prof !3

3:                                                ; preds = %0
  %4 = tail call i32 @__cxa_guard_acquire(ptr nonnull @_ZGVZN2cv3dnn14dnn4_v2024122328getParam_DNN_BACKEND_DEFAULTEvE25PARAM_DNN_BACKEND_DEFAULT) #5
  %.not = icmp eq i32 %4, 0
  br i1 %.not, label %9, label %5

5:                                                ; preds = %3
  %6 = invoke noundef i64 @_ZN2cv5utils30getConfigurationParameterSizeTEPKcm(ptr noundef nonnull @.str.2, i64 noundef 3)
          to label %7 unwind label %11

7:                                                ; preds = %5
  %8 = trunc i64 %6 to i32
  store i32 %8, ptr @_ZZN2cv3dnn14dnn4_v2024122328getParam_DNN_BACKEND_DEFAULTEvE25PARAM_DNN_BACKEND_DEFAULT, align 4, !tbaa !12
  tail call void @__cxa_guard_release(ptr nonnull @_ZGVZN2cv3dnn14dnn4_v2024122328getParam_DNN_BACKEND_DEFAULTEvE25PARAM_DNN_BACKEND_DEFAULT) #5
  br label %9

9:                                                ; preds = %7, %3, %0
  %10 = load i32, ptr @_ZZN2cv3dnn14dnn4_v2024122328getParam_DNN_BACKEND_DEFAULTEvE25PARAM_DNN_BACKEND_DEFAULT, align 4, !tbaa !12
  ret i32 %10

11:                                               ; preds = %5
  %12 = landingpad { ptr, i32 }
          cleanup
  tail call void @__cxa_guard_abort(ptr nonnull @_ZGVZN2cv3dnn14dnn4_v2024122328getParam_DNN_BACKEND_DEFAULTEvE25PARAM_DNN_BACKEND_DEFAULT) #5
  resume { ptr, i32 } %12
}